; Function Attrs: mustprogress uwtable
define void @_ZN6marisa5Agent9set_queryEPKc(ptr nocapture noundef nonnull align 8 dereferenceable(48) %0, ptr noundef %1) local_unnamed_addr #5 align 2 personality ptr @__gxx_personality_v0 {
  %3 = icmp eq ptr %1, null
  br i1 %3, label %4, label %10

4:                                                ; preds = %2
  %5 = tail call ptr @__cxa_allocate_exception(i64 32) #13
  store ptr getelementptr inbounds inrange(-16, 24) ({ [5 x ptr] }, ptr @_ZTVN6marisa9ExceptionE, i64 0, i32 0, i64 2), ptr %5, align 8
  %6 = getelementptr inbounds i8, ptr %5, i64 8
  store ptr @.str, ptr %6, align 8
  %7 = getelementptr inbounds i8, ptr %5, i64 16
  store i32 13, ptr %7, align 8
  %8 = getelementptr inbounds i8, ptr %5, i64 20
  store i32 2, ptr %8, align 4
  %9 = getelementptr inbounds i8, ptr %5, i64 24
  store ptr @.str.1, ptr %9, align 8
  tail call void @__cxa_throw(ptr nonnull %5, ptr nonnull @_ZTIN6marisa9ExceptionE, ptr nonnull @_ZN6marisa9ExceptionD2Ev) #14
  unreachable

10:                                               ; preds = %2
  %11 = getelementptr inbounds i8, ptr %0, i64 40
  %12 = load ptr, ptr %11, align 8
  %.not = icmp eq ptr %12, null
  br i1 %.not, label %.preheader, label %13

13:                                               ; preds = %10
  %14 = getelementptr inbounds i8, ptr %12, i64 108
  store i32 0, ptr %14, align 4
  br label %.preheader

.preheader:                                       ; preds = %13, %10
  br label %15

15:                                               ; preds = %.preheader, %15
  %.0.i = phi i64 [ %18, %15 ], [ 0, %.preheader ]
  %16 = getelementptr inbounds i8, ptr %1, i64 %.0.i
  %17 = load i8, ptr %16, align 1
  %.not.i = icmp eq i8 %17, 0
  %18 = add i64 %.0.i, 1
  br i1 %.not.i, label %_ZN6marisa5Query7set_strEPKc.exit, label %15, !llvm.loop !4

_ZN6marisa5Query7set_strEPKc.exit:                ; preds = %15
  store ptr %1, ptr %0, align 8
  %19 = getelementptr inbounds i8, ptr %0, i64 8
  store i64 %.0.i, ptr %19, align 8
  ret void
}